target datalayout = "e-m:e-p270:32:32-p271:32:32-p272:64:64-i64:64-i128:128-f80:128-n8:16:32:64-S128"
target triple = "x86_64-unknown-linux-gnu"

%"class.icu_75::BreakIterator" = type <{ %"class.icu_75::UObject", [157 x i8], [157 x i8], [157 x i8], i8 }>
%"class.icu_75::UObject" = type { ptr }

@_ZTVN6icu_757UObjectE = external unnamed_addr constant { [5 x ptr] }, align 8

; Function Attrs: mustprogress nounwind uwtable
define linkonce_odr void @_ZN6icu_757UObjectC2ERKS0_(ptr noundef nonnull align 8 dereferenceable(8) %this, ptr noundef nonnull align 8 dereferenceable(8) %0) unnamed_addr #0 comdat align 2 {
entry:
  %this.addr = alloca ptr, align 8
  %.addr = alloca ptr, align 8
  store ptr %this, ptr %this.addr, align 8
  store ptr %0, ptr %.addr, align 8
  %this1 = load ptr, ptr %this.addr, align 8
  store ptr getelementptr inbounds ({ [5 x ptr] }, ptr @_ZTVN6icu_757UObjectE, i32 0, i32 0, i32 2), ptr %this1, align 8
  ret void
}

; Function Attrs: mustprogress nounwind uwtable
define void @_ZN6icu_7513BreakIteratorC2ERKS0_(ptr noundef nonnull align 8 dereferenceable(479) %this, ptr noundef nonnull align 8 dereferenceable(479) %other) unnamed_addr #0 align 2 {
entry:
  %this.addr = alloca ptr, align 8
  %other.addr = alloca ptr, align 8
  store ptr %this, ptr %this.addr, align 8
  store ptr %other, ptr %other.addr, align 8
  %this1 = load ptr, ptr %this.addr, align 8
  %0 = load ptr, ptr %other.addr, align 8
  call void @_ZN6icu_757UObjectC2ERKS0_(ptr noundef nonnull align 8 dereferenceable(8) %this1, ptr noundef nonnull align 8 dereferenceable(8) %0) #10
  store ptr getelementptr inbounds ({ [25 x ptr] }, ptr @_ZTVN6icu_7513BreakIteratorE, i32 0, i32 0, i32 2), ptr %this1, align 8
  %actualLocale = getelementptr inbounds %"class.icu_75::BreakIterator", ptr %this1, i32 0, i32 1
  %arraydecay = getelementptr inbounds [157 x i8], ptr %actualLocale, i64 0, i64 0
  %1 = load ptr, ptr %other.addr, align 8
  %actualLocale2 = getelementptr inbounds %"class.icu_75::BreakIterator", ptr %1, i32 0, i32 1
  %arraydecay3 = getelementptr inbounds [157 x i8], ptr %actualLocale2, i64 0, i64 0
  %call = call ptr @strncpy(ptr noundef %arraydecay, ptr noundef %arraydecay3, i64 noundef 157) #10
  %validLocale = getelementptr inbounds %"class.icu_75::BreakIterator", ptr %this1, i32 0, i32 2
  %arraydecay4 = getelementptr inbounds [157 x i8], ptr %validLocale, i64 0, i64 0
  %2 = load ptr, ptr %other.addr, align 8
  %validLocale5 = getelementptr inbounds %"class.icu_75::BreakIterator", ptr %2, i32 0, i32 2
  %arraydecay6 = getelementptr inbounds [157 x i8], ptr %validLocale5, i64 0, i64 0
  %call7 = call ptr @strncpy(ptr noundef %arraydecay4, ptr noundef %arraydecay6, i64 noundef 157) #10
  %requestLocale = getelementptr inbounds %"class.icu_75::BreakIterator", ptr %this1, i32 0, i32 3
  %arraydecay8 = getelementptr inbounds [157 x i8], ptr %requestLocale, i64 0, i64 0
  %3 = load ptr, ptr %other.addr, align 8
  %requestLocale9 = getelementptr inbounds %"class.icu_75::BreakIterator", ptr %3, i32 0, i32 3
  %arraydecay10 = getelementptr inbounds [157 x i8], ptr %requestLocale9, i64 0, i64 0
  %call11 = call ptr @strncpy(ptr noundef %arraydecay8, ptr noundef %arraydecay10, i64 noundef 157) #10
  ret void
}