; Function Attrs: mustprogress nofree nounwind willreturn memory(argmem: readwrite) uwtable
define void @_ZN6icu_7513BreakIteratorC2ERKS0_(ptr noundef nonnull align 8 dereferenceable(479) %this, ptr nocapture noundef nonnull readonly align 8 dereferenceable(479) %other) unnamed_addr #11 align 2 {
entry:
  store ptr getelementptr inbounds ({ [25 x ptr] }, ptr @_ZTVN6icu_7513BreakIteratorE, i64 0, i32 0, i64 2), ptr %this, align 8
  %actualLocale = getelementptr inbounds i8, ptr %this, i64 8
  %actualLocale2 = getelementptr inbounds i8, ptr %other, i64 8
  %call = tail call ptr @strncpy(ptr noundef nonnull dereferenceable(1) %actualLocale, ptr noundef nonnull dereferenceable(1) %actualLocale2, i64 noundef 157) #18
  %validLocale = getelementptr inbounds i8, ptr %this, i64 165
  %validLocale5 = getelementptr inbounds i8, ptr %other, i64 165
  %call7 = tail call ptr @strncpy(ptr noundef nonnull dereferenceable(1) %validLocale, ptr noundef nonnull dereferenceable(1) %validLocale5, i64 noundef 157) #18
  %requestLocale = getelementptr inbounds i8, ptr %this, i64 322
  %requestLocale9 = getelementptr inbounds i8, ptr %other, i64 322
  %call11 = tail call ptr @strncpy(ptr noundef nonnull dereferenceable(1) %requestLocale, ptr noundef nonnull dereferenceable(1) %requestLocale9, i64 noundef 157) #18
  ret void
}